; Function Attrs: nounwind uwtable
define internal i32 @hwpml_scan_cb(ptr readnone captures(none) %0, i32 noundef %1, ptr noundef %2, ptr noundef %3) #0 {
  %5 = icmp sgt i32 %1, -1
  %6 = icmp ne ptr %3, null
  %or.cond = and i1 %5, %6
  br i1 %or.cond, label %7, label %9

7:                                                ; preds = %4
  %8 = tail call i32 @cli_magic_scan_desc(i32 noundef %1, ptr noundef %2, ptr noundef nonnull %3, ptr noundef null, i32 noundef 0) #10
  br label %9

9:                                                ; preds = %4, %7
  %.0 = phi i32 [ %8, %7 ], [ 2, %4 ]
  ret i32 %.0
}